target datalayout = "e-m:e-p270:32:32-p271:32:32-p272:64:64-i64:64-i128:128-f80:128-n8:16:32:64-S128"
target triple = "x86_64-pc-linux-gnu"

%struct.jv = type { i8, i8, i16, i32, %union.anon }
%union.anon = type { ptr }

@.str.5 = private unnamed_addr constant [58 x i8] c"cannot be divided (remainder) because the divisor is zero\00", align 1
@.str.6 = private unnamed_addr constant [30 x i8] c"cannot be divided (remainder)\00", align 1
@.str.8 = private unnamed_addr constant [23 x i8] c"%s (%s) and %s (%s) %s\00", align 1

; Function Attrs: nounwind uwtable
define internal { i64, ptr } @type_error2(i64 %0, ptr %1, i64 %2, ptr %3, ptr noundef %4) #0 {
  %6 = alloca %struct.jv, align 8
  %7 = alloca %struct.jv, align 8
  %8 = alloca %struct.jv, align 8
  %9 = alloca ptr, align 8
  %10 = alloca [15 x i8], align 1
  %11 = alloca [15 x i8], align 1
  %12 = alloca ptr, align 8
  %13 = alloca ptr, align 8
  %14 = alloca %struct.jv, align 8
  %15 = getelementptr inbounds nuw { i64, ptr }, ptr %7, i32 0, i32 0
  store i64 %0, ptr %15, align 8
  %16 = getelementptr inbounds nuw { i64, ptr }, ptr %7, i32 0, i32 1
  store ptr %1, ptr %16, align 8
  %17 = getelementptr inbounds nuw { i64, ptr }, ptr %8, i32 0, i32 0
  store i64 %2, ptr %17, align 8
  %18 = getelementptr inbounds nuw { i64, ptr }, ptr %8, i32 0, i32 1
  store ptr %3, ptr %18, align 8
  store ptr %4, ptr %9, align 8, !tbaa !12
  call void @llvm.lifetime.start.p0(i64 15, ptr %10) #10
  call void @llvm.lifetime.start.p0(i64 15, ptr %11) #10
  call void @llvm.lifetime.start.p0(i64 8, ptr %12) #10
  %19 = getelementptr inbounds nuw { i64, ptr }, ptr %7, i32 0, i32 0
  %20 = load i64, ptr %19, align 8
  %21 = getelementptr inbounds nuw { i64, ptr }, ptr %7, i32 0, i32 1
  %22 = load ptr, ptr %21, align 8
  %23 = call i32 @jv_get_kind(i64 %20, ptr %22)
  %24 = call ptr @jv_kind_name(i32 noundef %23)
  store ptr %24, ptr %12, align 8, !tbaa !12
  call void @llvm.lifetime.start.p0(i64 8, ptr %13) #10
  %25 = getelementptr inbounds nuw { i64, ptr }, ptr %8, i32 0, i32 0
  %26 = load i64, ptr %25, align 8
  %27 = getelementptr inbounds nuw { i64, ptr }, ptr %8, i32 0, i32 1
  %28 = load ptr, ptr %27, align 8
  %29 = call i32 @jv_get_kind(i64 %26, ptr %28)
  %30 = call ptr @jv_kind_name(i32 noundef %29)
  store ptr %30, ptr %13, align 8, !tbaa !12
  %31 = load ptr, ptr %12, align 8, !tbaa !12
  %32 = getelementptr inbounds [15 x i8], ptr %10, i64 0, i64 0
  %33 = getelementptr inbounds nuw { i64, ptr }, ptr %7, i32 0, i32 0
  %34 = load i64, ptr %33, align 8
  %35 = getelementptr inbounds nuw { i64, ptr }, ptr %7, i32 0, i32 1
  %36 = load ptr, ptr %35, align 8
  %37 = call ptr @jv_dump_string_trunc(i64 %34, ptr %36, ptr noundef %32, i64 noundef 15)
  %38 = load ptr, ptr %13, align 8, !tbaa !12
  %39 = getelementptr inbounds [15 x i8], ptr %11, i64 0, i64 0
  %40 = getelementptr inbounds nuw { i64, ptr }, ptr %8, i32 0, i32 0
  %41 = load i64, ptr %40, align 8
  %42 = getelementptr inbounds nuw { i64, ptr }, ptr %8, i32 0, i32 1
  %43 = load ptr, ptr %42, align 8
  %44 = call ptr @jv_dump_string_trunc(i64 %41, ptr %43, ptr noundef %39, i64 noundef 15)
  %45 = load ptr, ptr %9, align 8, !tbaa !12
  %46 = call { i64, ptr } (ptr, ...) @jv_string_fmt(ptr noundef @.str.8, ptr noundef %31, ptr noundef %37, ptr noundef %38, ptr noundef %44, ptr noundef %45)
  %47 = getelementptr inbounds nuw { i64, ptr }, ptr %14, i32 0, i32 0
  %48 = extractvalue { i64, ptr } %46, 0
  store i64 %48, ptr %47, align 8
  %49 = getelementptr inbounds nuw { i64, ptr }, ptr %14, i32 0, i32 1
  %50 = extractvalue { i64, ptr } %46, 1
  store ptr %50, ptr %49, align 8
  %51 = getelementptr inbounds nuw { i64, ptr }, ptr %14, i32 0, i32 0
  %52 = load i64, ptr %51, align 8
  %53 = getelementptr inbounds nuw { i64, ptr }, ptr %14, i32 0, i32 1
  %54 = load ptr, ptr %53, align 8
  %55 = call { i64, ptr } @jv_invalid_with_msg(i64 %52, ptr %54)
  %56 = getelementptr inbounds nuw { i64, ptr }, ptr %6, i32 0, i32 0
  %57 = extractvalue { i64, ptr } %55, 0
  store i64 %57, ptr %56, align 8
  %58 = getelementptr inbounds nuw { i64, ptr }, ptr %6, i32 0, i32 1
  %59 = extractvalue { i64, ptr } %55, 1
  store ptr %59, ptr %58, align 8
  call void @llvm.lifetime.end.p0(i64 8, ptr %13) #10
  call void @llvm.lifetime.end.p0(i64 8, ptr %12) #10
  call void @llvm.lifetime.end.p0(i64 15, ptr %11) #10
  call void @llvm.lifetime.end.p0(i64 15, ptr %10) #10
  %60 = load { i64, ptr }, ptr %6, align 8
  ret { i64, ptr } %60
}

; Function Attrs: nounwind uwtable
define dso_local { i64, ptr } @binop_mod(i64 %0, ptr %1, i64 %2, ptr %3) #0 {
  %5 = alloca %struct.jv, align 8
  %6 = alloca %struct.jv, align 8
  %7 = alloca %struct.jv, align 8
  %8 = alloca double, align 8
  %9 = alloca double, align 8
  %10 = alloca i32, align 4
  %11 = alloca i64, align 8
  %12 = getelementptr inbounds nuw { i64, ptr }, ptr %6, i32 0, i32 0
  store i64 %0, ptr %12, align 8
  %13 = getelementptr inbounds nuw { i64, ptr }, ptr %6, i32 0, i32 1
  store ptr %1, ptr %13, align 8
  %14 = getelementptr inbounds nuw { i64, ptr }, ptr %7, i32 0, i32 0
  store i64 %2, ptr %14, align 8
  %15 = getelementptr inbounds nuw { i64, ptr }, ptr %7, i32 0, i32 1
  store ptr %3, ptr %15, align 8
  %16 = getelementptr inbounds nuw { i64, ptr }, ptr %6, i32 0, i32 0
  %17 = load i64, ptr %16, align 8
  %18 = getelementptr inbounds nuw { i64, ptr }, ptr %6, i32 0, i32 1
  %19 = load ptr, ptr %18, align 8
  %20 = call i32 @jv_get_kind(i64 %17, ptr %19)
  %21 = icmp eq i32 %20, 4
  br i1 %21, label %22, label %131

22:                                               ; preds = %4
  %23 = getelementptr inbounds nuw { i64, ptr }, ptr %7, i32 0, i32 0
  %24 = load i64, ptr %23, align 8
  %25 = getelementptr inbounds nuw { i64, ptr }, ptr %7, i32 0, i32 1
  %26 = load ptr, ptr %25, align 8
  %27 = call i32 @jv_get_kind(i64 %24, ptr %26)
  %28 = icmp eq i32 %27, 4
  br i1 %28, label %29, label %131

29:                                               ; preds = %22
  call void @llvm.lifetime.start.p0(i64 8, ptr %8) #10
  %30 = getelementptr inbounds nuw { i64, ptr }, ptr %6, i32 0, i32 0
  %31 = load i64, ptr %30, align 8
  %32 = getelementptr inbounds nuw { i64, ptr }, ptr %6, i32 0, i32 1
  %33 = load ptr, ptr %32, align 8
  %34 = call double @jv_number_value(i64 %31, ptr %33)
  store double %34, ptr %8, align 8, !tbaa !20
  call void @llvm.lifetime.start.p0(i64 8, ptr %9) #10
  %35 = getelementptr inbounds nuw { i64, ptr }, ptr %7, i32 0, i32 0
  %36 = load i64, ptr %35, align 8
  %37 = getelementptr inbounds nuw { i64, ptr }, ptr %7, i32 0, i32 1
  %38 = load ptr, ptr %37, align 8
  %39 = call double @jv_number_value(i64 %36, ptr %38)
  store double %39, ptr %9, align 8, !tbaa !20
  %40 = load double, ptr %8, align 8, !tbaa !20
  %41 = call i1 @llvm.is.fpclass.f64(double %40, i32 3)
  br i1 %41, label %45, label %42

42:                                               ; preds = %29
  %43 = load double, ptr %9, align 8, !tbaa !20
  %44 = call i1 @llvm.is.fpclass.f64(double %43, i32 3)
  br i1 %44, label %45, label %59

45:                                               ; preds = %42, %29
  %46 = getelementptr inbounds nuw { i64, ptr }, ptr %6, i32 0, i32 0
  %47 = load i64, ptr %46, align 8
  %48 = getelementptr inbounds nuw { i64, ptr }, ptr %6, i32 0, i32 1
  %49 = load ptr, ptr %48, align 8
  call void @jv_free(i64 %47, ptr %49)
  %50 = getelementptr inbounds nuw { i64, ptr }, ptr %7, i32 0, i32 0
  %51 = load i64, ptr %50, align 8
  %52 = getelementptr inbounds nuw { i64, ptr }, ptr %7, i32 0, i32 1
  %53 = load ptr, ptr %52, align 8
  call void @jv_free(i64 %51, ptr %53)
  %54 = call { i64, ptr } @jv_number(double noundef 0x7FF8000000000000)
  %55 = getelementptr inbounds nuw { i64, ptr }, ptr %5, i32 0, i32 0
  %56 = extractvalue { i64, ptr } %54, 0
  store i64 %56, ptr %55, align 8
  %57 = getelementptr inbounds nuw { i64, ptr }, ptr %5, i32 0, i32 1
  %58 = extractvalue { i64, ptr } %54, 1
  store ptr %58, ptr %57, align 8
  store i32 1, ptr %10, align 4
  br label %130

59:                                               ; preds = %42
  call void @llvm.lifetime.start.p0(i64 8, ptr %11) #10
  %60 = load double, ptr %9, align 8, !tbaa !20
  %61 = fcmp olt double %60, 0xC3E0000000000000
  br i1 %61, label %62, label %63

62:                                               ; preds = %59
  br label %73

63:                                               ; preds = %59
  %64 = load double, ptr %9, align 8, !tbaa !20
  %65 = fneg double %64
  %66 = fcmp olt double %65, 0xC3E0000000000000
  br i1 %66, label %67, label %68

67:                                               ; preds = %63
  br label %71

68:                                               ; preds = %63
  %69 = load double, ptr %9, align 8, !tbaa !20
  %70 = fptosi double %69 to i64
  br label %71

71:                                               ; preds = %68, %67
  %72 = phi i64 [ 9223372036854775807, %67 ], [ %70, %68 ]
  br label %73

73:                                               ; preds = %71, %62
  %74 = phi i64 [ -9223372036854775808, %62 ], [ %72, %71 ]
  store i64 %74, ptr %11, align 8, !tbaa !22
  %75 = load i64, ptr %11, align 8, !tbaa !22
  %76 = icmp eq i64 %75, 0
  br i1 %76, label %77, label %91

77:                                               ; preds = %73
  %78 = getelementptr inbounds nuw { i64, ptr }, ptr %6, i32 0, i32 0
  %79 = load i64, ptr %78, align 8
  %80 = getelementptr inbounds nuw { i64, ptr }, ptr %6, i32 0, i32 1
  %81 = load ptr, ptr %80, align 8
  %82 = getelementptr inbounds nuw { i64, ptr }, ptr %7, i32 0, i32 0
  %83 = load i64, ptr %82, align 8
  %84 = getelementptr inbounds nuw { i64, ptr }, ptr %7, i32 0, i32 1
  %85 = load ptr, ptr %84, align 8
  %86 = call { i64, ptr } @type_error2(i64 %79, ptr %81, i64 %83, ptr %85, ptr noundef @.str.5)
  %87 = getelementptr inbounds nuw { i64, ptr }, ptr %5, i32 0, i32 0
  %88 = extractvalue { i64, ptr } %86, 0
  store i64 %88, ptr %87, align 8
  %89 = getelementptr inbounds nuw { i64, ptr }, ptr %5, i32 0, i32 1
  %90 = extractvalue { i64, ptr } %86, 1
  store ptr %90, ptr %89, align 8
  store i32 1, ptr %10, align 4
  br label %129

91:                                               ; preds = %73
  %92 = load i64, ptr %11, align 8, !tbaa !22
  %93 = icmp eq i64 %92, -1
  br i1 %93, label %94, label %95

94:                                               ; preds = %91
  br label %113

95:                                               ; preds = %91
  %96 = load double, ptr %8, align 8, !tbaa !20
  %97 = fcmp olt double %96, 0xC3E0000000000000
  br i1 %97, label %98, label %99

98:                                               ; preds = %95
  br label %109

99:                                               ; preds = %95
  %100 = load double, ptr %8, align 8, !tbaa !20
  %101 = fneg double %100
  %102 = fcmp olt double %101, 0xC3E0000000000000
  br i1 %102, label %103, label %104

103:                                              ; preds = %99
  br label %107

104:                                              ; preds = %99
  %105 = load double, ptr %8, align 8, !tbaa !20
  %106 = fptosi double %105 to i64
  br label %107

107:                                              ; preds = %104, %103
  %108 = phi i64 [ 9223372036854775807, %103 ], [ %106, %104 ]
  br label %109

109:                                              ; preds = %107, %98
  %110 = phi i64 [ -9223372036854775808, %98 ], [ %108, %107 ]
  %111 = load i64, ptr %11, align 8, !tbaa !22
  %112 = srem i64 %110, %111
  br label %113

113:                                              ; preds = %109, %94
  %114 = phi i64 [ 0, %94 ], [ %112, %109 ]
  %115 = sitofp i64 %114 to double
  %116 = call { i64, ptr } @jv_number(double noundef %115)
  %117 = getelementptr inbounds nuw { i64, ptr }, ptr %5, i32 0, i32 0
  %118 = extractvalue { i64, ptr } %116, 0
  store i64 %118, ptr %117, align 8
  %119 = getelementptr inbounds nuw { i64, ptr }, ptr %5, i32 0, i32 1
  %120 = extractvalue { i64, ptr } %116, 1
  store ptr %120, ptr %119, align 8
  %121 = getelementptr inbounds nuw { i64, ptr }, ptr %6, i32 0, i32 0
  %122 = load i64, ptr %121, align 8
  %123 = getelementptr inbounds nuw { i64, ptr }, ptr %6, i32 0, i32 1
  %124 = load ptr, ptr %123, align 8
  call void @jv_free(i64 %122, ptr %124)
  %125 = getelementptr inbounds nuw { i64, ptr }, ptr %7, i32 0, i32 0
  %126 = load i64, ptr %125, align 8
  %127 = getelementptr inbounds nuw { i64, ptr }, ptr %7, i32 0, i32 1
  %128 = load ptr, ptr %127, align 8
  call void @jv_free(i64 %126, ptr %128)
  store i32 1, ptr %10, align 4
  br label %129

129:                                              ; preds = %113, %77
  call void @llvm.lifetime.end.p0(i64 8, ptr %11) #10
  br label %130

130:                                              ; preds = %129, %45
  call void @llvm.lifetime.end.p0(i64 8, ptr %9) #10
  call void @llvm.lifetime.end.p0(i64 8, ptr %8) #10
  br label %145

131:                                              ; preds = %22, %4
  %132 = getelementptr inbounds nuw { i64, ptr }, ptr %6, i32 0, i32 0
  %133 = load i64, ptr %132, align 8
  %134 = getelementptr inbounds nuw { i64, ptr }, ptr %6, i32 0, i32 1
  %135 = load ptr, ptr %134, align 8
  %136 = getelementptr inbounds nuw { i64, ptr }, ptr %7, i32 0, i32 0
  %137 = load i64, ptr %136, align 8
  %138 = getelementptr inbounds nuw { i64, ptr }, ptr %7, i32 0, i32 1
  %139 = load ptr, ptr %138, align 8
  %140 = call { i64, ptr } @type_error2(i64 %133, ptr %135, i64 %137, ptr %139, ptr noundef @.str.6)
  %141 = getelementptr inbounds nuw { i64, ptr }, ptr %5, i32 0, i32 0
  %142 = extractvalue { i64, ptr } %140, 0
  store i64 %142, ptr %141, align 8
  %143 = getelementptr inbounds nuw { i64, ptr }, ptr %5, i32 0, i32 1
  %144 = extractvalue { i64, ptr } %140, 1
  store ptr %144, ptr %143, align 8
  br label %145

145:                                              ; preds = %131, %130
  %146 = load { i64, ptr }, ptr %5, align 8
  ret { i64, ptr } %146
}