; Function Attrs: nounwind uwtable
define dso_local { i64, ptr } @binop_mod(i64 %0, ptr %1, i64 %2, ptr %3) local_unnamed_addr #0 {
  %5 = alloca [15 x i8], align 1
  %6 = alloca [15 x i8], align 1
  %7 = alloca [15 x i8], align 1
  %8 = alloca [15 x i8], align 1
  %9 = tail call i32 @jv_get_kind(i64 %0, ptr %1) #14
  %10 = icmp eq i32 %9, 4
  br i1 %10, label %11, label %49

11:                                               ; preds = %4
  %12 = tail call i32 @jv_get_kind(i64 %2, ptr %3) #14
  %13 = icmp eq i32 %12, 4
  br i1 %13, label %14, label %49

14:                                               ; preds = %11
  %15 = tail call double @jv_number_value(i64 %0, ptr %1) #14
  %16 = tail call double @jv_number_value(i64 %2, ptr %3) #14
  %17 = fcmp uno double %15, 0.000000e+00
  %18 = fcmp uno double %16, 0.000000e+00
  %or.cond = select i1 %17, i1 true, i1 %18
  br i1 %or.cond, label %19, label %21

19:                                               ; preds = %14
  tail call void @jv_free(i64 %0, ptr %1) #14
  tail call void @jv_free(i64 %2, ptr %3) #14
  %20 = tail call { i64, ptr } @jv_number(double noundef 0x7FF8000000000000) #14
  br label %60

21:                                               ; preds = %14
  %22 = fcmp olt double %16, 0xC3E0000000000000
  %23 = fcmp ogt double %16, 0x43E0000000000000
  %24 = fptosi double %16 to i64
  %25 = select i1 %23, i64 9223372036854775807, i64 %24
  %26 = select i1 %22, i64 -9223372036854775808, i64 %25
  switch i64 %26, label %38 [
    i64 0, label %27
    i64 -1, label %46
  ]

27:                                               ; preds = %21
  call void @llvm.lifetime.start.p0(i64 15, ptr nonnull %7) #14
  call void @llvm.lifetime.start.p0(i64 15, ptr nonnull %8) #14
  %28 = tail call i32 @jv_get_kind(i64 %0, ptr %1) #14
  %29 = tail call ptr @jv_kind_name(i32 noundef %28) #14
  %30 = tail call i32 @jv_get_kind(i64 %2, ptr %3) #14
  %31 = tail call ptr @jv_kind_name(i32 noundef %30) #14
  %32 = call ptr @jv_dump_string_trunc(i64 %0, ptr %1, ptr noundef nonnull %7, i64 noundef 15) #14
  %33 = call ptr @jv_dump_string_trunc(i64 %2, ptr %3, ptr noundef nonnull %8, i64 noundef 15) #14
  %34 = call { i64, ptr } (ptr, ...) @jv_string_fmt(ptr noundef nonnull @.str.8, ptr noundef %29, ptr noundef %32, ptr noundef %31, ptr noundef %33, ptr noundef nonnull @.str.5) #14
  %35 = extractvalue { i64, ptr } %34, 0
  %36 = extractvalue { i64, ptr } %34, 1
  %37 = call { i64, ptr } @jv_invalid_with_msg(i64 %35, ptr %36) #14
  call void @llvm.lifetime.end.p0(i64 15, ptr nonnull %8) #14
  call void @llvm.lifetime.end.p0(i64 15, ptr nonnull %7) #14
  br label %60

38:                                               ; preds = %21
  %39 = fcmp olt double %15, 0xC3E0000000000000
  %40 = fcmp ogt double %15, 0x43E0000000000000
  %41 = fptosi double %15 to i64
  %42 = select i1 %40, i64 9223372036854775807, i64 %41
  %43 = select i1 %39, i64 -9223372036854775808, i64 %42
  %44 = srem i64 %43, %26
  %45 = sitofp i64 %44 to double
  br label %46

46:                                               ; preds = %21, %38
  %47 = phi double [ %45, %38 ], [ 0.000000e+00, %21 ]
  %48 = tail call { i64, ptr } @jv_number(double noundef %47) #14
  tail call void @jv_free(i64 %0, ptr %1) #14
  tail call void @jv_free(i64 %2, ptr %3) #14
  br label %60

49:                                               ; preds = %11, %4
  call void @llvm.lifetime.start.p0(i64 15, ptr nonnull %5) #14
  call void @llvm.lifetime.start.p0(i64 15, ptr nonnull %6) #14
  %50 = tail call i32 @jv_get_kind(i64 %0, ptr %1) #14
  %51 = tail call ptr @jv_kind_name(i32 noundef %50) #14
  %52 = tail call i32 @jv_get_kind(i64 %2, ptr %3) #14
  %53 = tail call ptr @jv_kind_name(i32 noundef %52) #14
  %54 = call ptr @jv_dump_string_trunc(i64 %0, ptr %1, ptr noundef nonnull %5, i64 noundef 15) #14
  %55 = call ptr @jv_dump_string_trunc(i64 %2, ptr %3, ptr noundef nonnull %6, i64 noundef 15) #14
  %56 = call { i64, ptr } (ptr, ...) @jv_string_fmt(ptr noundef nonnull @.str.8, ptr noundef %51, ptr noundef %54, ptr noundef %53, ptr noundef %55, ptr noundef nonnull @.str.6) #14
  %57 = extractvalue { i64, ptr } %56, 0
  %58 = extractvalue { i64, ptr } %56, 1
  %59 = call { i64, ptr } @jv_invalid_with_msg(i64 %57, ptr %58) #14
  call void @llvm.lifetime.end.p0(i64 15, ptr nonnull %6) #14
  call void @llvm.lifetime.end.p0(i64 15, ptr nonnull %5) #14
  br label %60

60:                                               ; preds = %19, %46, %27, %49
  %.pn36.pn = phi { i64, ptr } [ %59, %49 ], [ %20, %19 ], [ %37, %27 ], [ %48, %46 ]
  ret { i64, ptr } %.pn36.pn
}